target datalayout = "e-m:e-p270:32:32-p271:32:32-p272:64:64-i64:64-i128:128-f80:128-n8:16:32:64-S128"
target triple = "x86_64-unknown-linux-gnu"

%struct.V9fsPath = type { i16, ptr }
%struct.V9fsState = type { %struct.anon, %struct.anon.0, ptr, ptr, %struct.FsContext, ptr, i32, i32, [128 x %struct.V9fsPDU], ptr, %struct.CoRwlock, i32, ptr, %struct.V9fsConf, %struct.stat, i64, %struct.qht, %struct.qht, %struct.qht, i64, i16, i64 }
%struct.anon = type { ptr }
%struct.anon.0 = type { ptr }
%struct.FsContext = type { i32, ptr, i32, ptr, %struct.ExtendedOps, ptr, ptr, i32, i32 }
%struct.ExtendedOps = type { ptr }
%struct.V9fsPDU = type { i32, i16, i8, i8, %struct.CoQueue, ptr, %struct.anon.2, i32 }
%struct.CoQueue = type { %struct.anon.1 }
%struct.anon.1 = type { ptr, ptr }
%struct.anon.2 = type { ptr, ptr }
%struct.CoRwlock = type { %struct.CoMutex, i32, %struct.anon.4 }
%struct.CoMutex = type { i32, ptr, %struct.anon.3, %struct.anon.3, i32, i32, ptr }
%struct.anon.3 = type { ptr }
%struct.anon.4 = type { ptr, ptr }
%struct.V9fsConf = type { ptr, ptr }
%struct.stat = type { i64, i64, i64, i32, i32, i32, i32, i64, i64, i64, i64, %struct.timespec, %struct.timespec, %struct.timespec, [3 x i64] }
%struct.timespec = type { i64, i64 }
%struct.qht = type { ptr, ptr, %struct.QemuMutex, i32 }
%struct.QemuMutex = type { %union.pthread_mutex_t, i8 }
%union.pthread_mutex_t = type { %struct.__pthread_mutex_s }
%struct.__pthread_mutex_s = type { i32, i32, i32, i32, i32, i16, i16, %struct.__pthread_internal_list }
%struct.__pthread_internal_list = type { ptr, ptr }
%struct.V9fsFidState = type { i32, i32, %struct.V9fsPath, %union.V9fsFidOpenState, %union.V9fsFidOpenState, i32, i32, i32, i32, i8, %struct.anon.6, %struct.anon.7 }
%union.V9fsFidOpenState = type { %struct.V9fsDir }
%struct.V9fsDir = type { ptr, i32, %struct.CoMutex, %struct.QemuMutex }
%struct.anon.6 = type { ptr }
%struct.anon.7 = type { ptr }

@.str = private unnamed_addr constant [21 x i8] c"../qemu/hw/9pfs/9p.c\00", align 1
@.str.15 = private unnamed_addr constant [14 x i8] c"!(f->clunked)\00", align 1
@__PRETTY_FUNCTION__.get_fid = private unnamed_addr constant [42 x i8] c"V9fsFidState *get_fid(V9fsPDU *, int32_t)\00", align 1

; Function Attrs: nounwind sspstrong uwtable
define internal i32 @v9fs_reopen_fid(ptr noundef %pdu, ptr noundef %f) #0 {
entry:
  %pdu.addr = alloca ptr, align 8
  %f.addr = alloca ptr, align 8
  %err = alloca i32, align 4
  store ptr %pdu, ptr %pdu.addr, align 8
  store ptr %f, ptr %f.addr, align 8
  store i32 1, ptr %err, align 4
  %0 = load ptr, ptr %f.addr, align 8
  %fid_type = getelementptr inbounds %struct.V9fsFidState, ptr %0, i32 0, i32 0
  %1 = load i32, ptr %fid_type, align 8
  %cmp = icmp eq i32 %1, 1
  br i1 %cmp, label %if.then, label %if.else

if.then:                                          ; preds = %entry
  %2 = load ptr, ptr %f.addr, align 8
  %fs = getelementptr inbounds %struct.V9fsFidState, ptr %2, i32 0, i32 3
  %3 = load i32, ptr %fs, align 8
  %cmp1 = icmp eq i32 %3, -1
  br i1 %cmp1, label %if.then2, label %if.end

if.then2:                                         ; preds = %if.then
  br label %do.body

do.body:                                          ; preds = %land.end, %if.then2
  %4 = load ptr, ptr %pdu.addr, align 8
  %5 = load ptr, ptr %f.addr, align 8
  %6 = load ptr, ptr %f.addr, align 8
  %open_flags = getelementptr inbounds %struct.V9fsFidState, ptr %6, i32 0, i32 6
  %7 = load i32, ptr %open_flags, align 4
  %call = call i32 @v9fs_co_open(ptr noundef %4, ptr noundef %5, i32 noundef %7)
  store i32 %call, ptr %err, align 4
  br label %do.cond

do.cond:                                          ; preds = %do.body
  %8 = load i32, ptr %err, align 4
  %cmp3 = icmp eq i32 %8, -4
  br i1 %cmp3, label %land.rhs, label %land.end

land.rhs:                                         ; preds = %do.cond
  %9 = load ptr, ptr %pdu.addr, align 8
  %cancelled = getelementptr inbounds %struct.V9fsPDU, ptr %9, i32 0, i32 3
  %10 = load i8, ptr %cancelled, align 1
  %tobool = icmp ne i8 %10, 0
  %lnot = xor i1 %tobool, true
  br label %land.end

land.end:                                         ; preds = %land.rhs, %do.cond
  %11 = phi i1 [ false, %do.cond ], [ %lnot, %land.rhs ]
  br i1 %11, label %do.body, label %do.end, !llvm.loop !21

do.end:                                           ; preds = %land.end
  br label %if.end

if.end:                                           ; preds = %do.end, %if.then
  br label %if.end22

if.else:                                          ; preds = %entry
  %12 = load ptr, ptr %f.addr, align 8
  %fid_type4 = getelementptr inbounds %struct.V9fsFidState, ptr %12, i32 0, i32 0
  %13 = load i32, ptr %fid_type4, align 8
  %cmp5 = icmp eq i32 %13, 2
  br i1 %cmp5, label %if.then6, label %if.end21

if.then6:                                         ; preds = %if.else
  %14 = load ptr, ptr %f.addr, align 8
  %fs7 = getelementptr inbounds %struct.V9fsFidState, ptr %14, i32 0, i32 3
  %stream = getelementptr inbounds %struct.V9fsDir, ptr %fs7, i32 0, i32 0
  %15 = load ptr, ptr %stream, align 8
  %cmp8 = icmp eq ptr %15, null
  br i1 %cmp8, label %if.then9, label %if.end20

if.then9:                                         ; preds = %if.then6
  br label %do.body10

do.body10:                                        ; preds = %land.end18, %if.then9
  %16 = load ptr, ptr %pdu.addr, align 8
  %17 = load ptr, ptr %f.addr, align 8
  %call11 = call i32 @v9fs_co_opendir(ptr noundef %16, ptr noundef %17)
  store i32 %call11, ptr %err, align 4
  br label %do.cond12

do.cond12:                                        ; preds = %do.body10
  %18 = load i32, ptr %err, align 4
  %cmp13 = icmp eq i32 %18, -4
  br i1 %cmp13, label %land.rhs14, label %land.end18

land.rhs14:                                       ; preds = %do.cond12
  %19 = load ptr, ptr %pdu.addr, align 8
  %cancelled15 = getelementptr inbounds %struct.V9fsPDU, ptr %19, i32 0, i32 3
  %20 = load i8, ptr %cancelled15, align 1
  %tobool16 = icmp ne i8 %20, 0
  %lnot17 = xor i1 %tobool16, true
  br label %land.end18

land.end18:                                       ; preds = %land.rhs14, %do.cond12
  %21 = phi i1 [ false, %do.cond12 ], [ %lnot17, %land.rhs14 ]
  br i1 %21, label %do.body10, label %do.end19, !llvm.loop !22

do.end19:                                         ; preds = %land.end18
  br label %if.end20

if.end20:                                         ; preds = %do.end19, %if.then6
  br label %if.end21

if.end21:                                         ; preds = %if.end20, %if.else
  br label %if.end22

if.end22:                                         ; preds = %if.end21, %if.end
  %22 = load i32, ptr %err, align 4
  ret i32 %22
}

; Function Attrs: nounwind sspstrong uwtable
define internal ptr @get_fid(ptr noundef %pdu, i32 noundef %fid) #0 {
entry:
  %retval = alloca ptr, align 8
  %pdu.addr = alloca ptr, align 8
  %fid.addr = alloca i32, align 4
  %err = alloca i32, align 4
  %f = alloca ptr, align 8
  %s = alloca ptr, align 8
  store ptr %pdu, ptr %pdu.addr, align 8
  store i32 %fid, ptr %fid.addr, align 4
  %0 = load ptr, ptr %pdu.addr, align 8
  %s1 = getelementptr inbounds %struct.V9fsPDU, ptr %0, i32 0, i32 5
  %1 = load ptr, ptr %s1, align 8
  store ptr %1, ptr %s, align 8
  %2 = load ptr, ptr %s, align 8
  %fids = getelementptr inbounds %struct.V9fsState, ptr %2, i32 0, i32 2
  %3 = load ptr, ptr %fids, align 8
  %4 = load i32, ptr %fid.addr, align 4
  %conv = sext i32 %4 to i64
  %5 = inttoptr i64 %conv to ptr
  %call = call ptr @g_hash_table_lookup(ptr noundef %3, ptr noundef %5)
  store ptr %call, ptr %f, align 8
  %6 = load ptr, ptr %f, align 8
  %tobool = icmp ne ptr %6, null
  br i1 %tobool, label %if.then, label %if.end9

if.then:                                          ; preds = %entry
  %7 = load ptr, ptr %f, align 8
  %clunked = getelementptr inbounds %struct.V9fsFidState, ptr %7, i32 0, i32 9
  %8 = load i8, ptr %clunked, align 8
  %tobool2 = trunc i8 %8 to i1
  br i1 %tobool2, label %if.else, label %if.then3

if.then3:                                         ; preds = %if.then
  br label %if.end

if.else:                                          ; preds = %if.then
  call void @__assert_fail(ptr noundef @.str.15, ptr noundef @.str, i32 noundef 286, ptr noundef @__PRETTY_FUNCTION__.get_fid) #16
  unreachable

if.end:                                           ; preds = %if.then3
  %9 = load ptr, ptr %f, align 8
  %ref = getelementptr inbounds %struct.V9fsFidState, ptr %9, i32 0, i32 8
  %10 = load i32, ptr %ref, align 4
  %inc = add i32 %10, 1
  store i32 %inc, ptr %ref, align 4
  %11 = load ptr, ptr %pdu.addr, align 8
  %12 = load ptr, ptr %f, align 8
  %call4 = call i32 @v9fs_reopen_fid(ptr noundef %11, ptr noundef %12)
  store i32 %call4, ptr %err, align 4
  %13 = load i32, ptr %err, align 4
  %cmp = icmp slt i32 %13, 0
  br i1 %cmp, label %if.then6, label %if.end8

if.then6:                                         ; preds = %if.end
  %14 = load ptr, ptr %f, align 8
  %ref7 = getelementptr inbounds %struct.V9fsFidState, ptr %14, i32 0, i32 8
  %15 = load i32, ptr %ref7, align 4
  %dec = add i32 %15, -1
  store i32 %dec, ptr %ref7, align 4
  store ptr null, ptr %retval, align 8
  br label %return

if.end8:                                          ; preds = %if.end
  %16 = load ptr, ptr %f, align 8
  %flags = getelementptr inbounds %struct.V9fsFidState, ptr %16, i32 0, i32 5
  %17 = load i32, ptr %flags, align 8
  %or = or i32 %17, 1
  store i32 %or, ptr %flags, align 8
  %18 = load ptr, ptr %f, align 8
  store ptr %18, ptr %retval, align 8
  br label %return

if.end9:                                          ; preds = %entry
  store ptr null, ptr %retval, align 8
  br label %return

return:                                           ; preds = %if.end9, %if.end8, %if.then6
  %19 = load ptr, ptr %retval, align 8
  ret ptr %19
}