; Function Attrs: nounwind sspstrong uwtable
define internal ptr @get_fid(ptr noundef %pdu, i32 noundef %fid) #0 {
entry:
  %s1 = getelementptr inbounds nuw i8, ptr %pdu, i64 24
  %0 = load ptr, ptr %s1, align 8
  %fids = getelementptr inbounds nuw i8, ptr %0, i64 16
  %1 = load ptr, ptr %fids, align 8
  %conv = sext i32 %fid to i64
  %2 = inttoptr i64 %conv to ptr
  %call = tail call ptr @g_hash_table_lookup(ptr noundef %1, ptr noundef %2) #24
  %tobool.not = icmp eq ptr %call, null
  br i1 %tobool.not, label %return, label %if.then

if.then:                                          ; preds = %entry
  %clunked = getelementptr inbounds nuw i8, ptr %call, i64 264
  %3 = load i8, ptr %clunked, align 8
  %tobool2 = trunc i8 %3 to i1
  br i1 %tobool2, label %if.else, label %if.end

if.else:                                          ; preds = %if.then
  tail call void @__assert_fail(ptr noundef nonnull @.str.15, ptr noundef nonnull @.str, i32 noundef 286, ptr noundef nonnull @__PRETTY_FUNCTION__.get_fid) #28
  unreachable

if.end:                                           ; preds = %if.then
  %ref = getelementptr inbounds nuw i8, ptr %call, i64 260
  %4 = load i32, ptr %ref, align 4
  %inc = add i32 %4, 1
  store i32 %inc, ptr %ref, align 4
  %5 = load i32, ptr %call, align 8
  switch i32 %5, label %if.end8 [
    i32 1, label %if.then.i
    i32 2, label %if.then6.i
  ]

if.then.i:                                        ; preds = %if.end
  %fs.i = getelementptr inbounds nuw i8, ptr %call, i64 24
  %6 = load i32, ptr %fs.i, align 8
  %cmp1.i = icmp eq i32 %6, -1
  br i1 %cmp1.i, label %do.body.preheader.i, label %if.end8

do.body.preheader.i:                              ; preds = %if.then.i
  %cancelled.i = getelementptr inbounds nuw i8, ptr %pdu, i64 7
  %open_flags.i = getelementptr inbounds nuw i8, ptr %call, i64 252
  br label %do.body.i

do.body.i:                                        ; preds = %land.rhs.i, %do.body.preheader.i
  %7 = load i32, ptr %open_flags.i, align 4
  %call.i = tail call i32 @v9fs_co_open(ptr noundef nonnull %pdu, ptr noundef nonnull %call, i32 noundef %7) #24
  %cmp3.i = icmp eq i32 %call.i, -4
  br i1 %cmp3.i, label %land.rhs.i, label %v9fs_reopen_fid.exit

land.rhs.i:                                       ; preds = %do.body.i
  %8 = load i8, ptr %cancelled.i, align 1
  %tobool.not.i = icmp eq i8 %8, 0
  br i1 %tobool.not.i, label %do.body.i, label %if.then6, !llvm.loop !22

if.then6.i:                                       ; preds = %if.end
  %fs7.i = getelementptr inbounds nuw i8, ptr %call, i64 24
  %9 = load ptr, ptr %fs7.i, align 8
  %cmp8.i = icmp eq ptr %9, null
  br i1 %cmp8.i, label %do.body10.preheader.i, label %if.end8

do.body10.preheader.i:                            ; preds = %if.then6.i
  %cancelled15.i = getelementptr inbounds nuw i8, ptr %pdu, i64 7
  br label %do.body10.i

do.body10.i:                                      ; preds = %land.rhs14.i, %do.body10.preheader.i
  %call11.i = tail call i32 @v9fs_co_opendir(ptr noundef nonnull %pdu, ptr noundef nonnull %call) #24
  %cmp13.i = icmp eq i32 %call11.i, -4
  br i1 %cmp13.i, label %land.rhs14.i, label %v9fs_reopen_fid.exit

land.rhs14.i:                                     ; preds = %do.body10.i
  %10 = load i8, ptr %cancelled15.i, align 1
  %tobool16.not.i = icmp eq i8 %10, 0
  br i1 %tobool16.not.i, label %do.body10.i, label %if.then6, !llvm.loop !23

v9fs_reopen_fid.exit:                             ; preds = %do.body10.i, %do.body.i
  %err.0.i = phi i32 [ %call.i, %do.body.i ], [ %call11.i, %do.body10.i ]
  %cmp = icmp slt i32 %err.0.i, 0
  br i1 %cmp, label %if.then6, label %if.end8

if.then6:                                         ; preds = %land.rhs14.i, %land.rhs.i, %v9fs_reopen_fid.exit
  %11 = load i32, ptr %ref, align 4
  %dec = add i32 %11, -1
  store i32 %dec, ptr %ref, align 4
  br label %return

if.end8:                                          ; preds = %if.end, %if.then6.i, %if.then.i, %v9fs_reopen_fid.exit
  %flags = getelementptr inbounds nuw i8, ptr %call, i64 248
  %12 = load i32, ptr %flags, align 8
  %or = or i32 %12, 1
  store i32 %or, ptr %flags, align 8
  br label %return

return:                                           ; preds = %entry, %if.end8, %if.then6
  %retval.0 = phi ptr [ null, %if.then6 ], [ %call, %if.end8 ], [ null, %entry ]
  ret ptr %retval.0
}